target datalayout = "e-m:e-p270:32:32-p271:32:32-p272:64:64-i64:64-i128:128-f80:128-n8:16:32:64-S128"
target triple = "x86_64-pc-linux-gnu"

@reftable_free_ptr = internal global ptr null, align 8

; Function Attrs: nounwind uwtable
define dso_local void @reftable_free(ptr noundef %0) #0 {
  %2 = alloca ptr, align 8
  store ptr %0, ptr %2, align 8, !tbaa !8
  %3 = load ptr, ptr @reftable_free_ptr, align 8, !tbaa !8
  %4 = icmp ne ptr %3, null
  br i1 %4, label %5, label %8

5:                                                ; preds = %1
  %6 = load ptr, ptr @reftable_free_ptr, align 8, !tbaa !8
  %7 = load ptr, ptr %2, align 8, !tbaa !8
  call void %6(ptr noundef %7)
  br label %10

8:                                                ; preds = %1
  %9 = load ptr, ptr %2, align 8, !tbaa !8
  call void @free(ptr noundef %9) #13
  br label %10

10:                                               ; preds = %8, %5
  ret void
}

; Function Attrs: nounwind uwtable
define dso_local void @free_names(ptr noundef %0) #0 {
  %2 = alloca ptr, align 8
  %3 = alloca ptr, align 8
  %4 = alloca i32, align 4
  store ptr %0, ptr %2, align 8, !tbaa !28
  call void @llvm.lifetime.start.p0(i64 8, ptr %3) #13
  %5 = load ptr, ptr %2, align 8, !tbaa !28
  %6 = icmp ne ptr %5, null
  br i1 %6, label %8, label %7

7:                                                ; preds = %1
  store i32 1, ptr %4, align 4
  br label %22

8:                                                ; preds = %1
  %9 = load ptr, ptr %2, align 8, !tbaa !28
  store ptr %9, ptr %3, align 8, !tbaa !28
  br label %10

10:                                               ; preds = %17, %8
  %11 = load ptr, ptr %3, align 8, !tbaa !28
  %12 = load ptr, ptr %11, align 8, !tbaa !10
  %13 = icmp ne ptr %12, null
  br i1 %13, label %14, label %20

14:                                               ; preds = %10
  %15 = load ptr, ptr %3, align 8, !tbaa !28
  %16 = load ptr, ptr %15, align 8, !tbaa !10
  call void @reftable_free(ptr noundef %16)
  br label %17

17:                                               ; preds = %14
  %18 = load ptr, ptr %3, align 8, !tbaa !28
  %19 = getelementptr inbounds nuw ptr, ptr %18, i32 1
  store ptr %19, ptr %3, align 8, !tbaa !28
  br label %10, !llvm.loop !30

20:                                               ; preds = %10
  %21 = load ptr, ptr %2, align 8, !tbaa !28
  call void @reftable_free(ptr noundef %21)
  store i32 0, ptr %4, align 4
  br label %22

22:                                               ; preds = %20, %7
  call void @llvm.lifetime.end.p0(i64 8, ptr %3) #13
  %23 = load i32, ptr %4, align 4
  switch i32 %23, label %25 [
    i32 0, label %24
    i32 1, label %24
  ]

24:                                               ; preds = %22, %22
  ret void

25:                                               ; preds = %22
  unreachable
}