; Function Attrs: nounwind uwtable
define dso_local void @free_names(ptr noundef %0) local_unnamed_addr #0 {
  %.not = icmp eq ptr %0, null
  br i1 %.not, label %reftable_free.exit10, label %.preheader

.preheader:                                       ; preds = %1
  %2 = load ptr, ptr %0, align 8, !tbaa !18
  %.not811 = icmp eq ptr %2, null
  %.pre15 = load ptr, ptr @reftable_free_ptr, align 8, !tbaa !4
  br i1 %.not811, label %._crit_edge, label %.lr.ph

.lr.ph:                                           ; preds = %.preheader
  %3 = icmp eq ptr %.pre15, null
  br i1 %3, label %reftable_free.exit.us, label %.lr.ph.split

reftable_free.exit.us:                            ; preds = %.lr.ph, %reftable_free.exit.us
  %4 = phi ptr [ %6, %reftable_free.exit.us ], [ %2, %.lr.ph ]
  %.012.us = phi ptr [ %5, %reftable_free.exit.us ], [ %0, %.lr.ph ]
  tail call void @free(ptr noundef nonnull %4) #20
  %5 = getelementptr inbounds nuw i8, ptr %.012.us, i64 8
  %6 = load ptr, ptr %5, align 8, !tbaa !18
  %.not8.us = icmp eq ptr %6, null
  br i1 %.not8.us, label %._crit_edge.thread, label %reftable_free.exit.us, !llvm.loop !19

.lr.ph.split:                                     ; preds = %.lr.ph, %reftable_free.exit
  %7 = phi ptr [ %12, %reftable_free.exit ], [ %.pre15, %.lr.ph ]
  %8 = phi ptr [ %13, %reftable_free.exit ], [ %.pre15, %.lr.ph ]
  %9 = phi ptr [ %15, %reftable_free.exit ], [ %2, %.lr.ph ]
  %.012 = phi ptr [ %14, %reftable_free.exit ], [ %0, %.lr.ph ]
  %.not.i = icmp eq ptr %8, null
  br i1 %.not.i, label %11, label %10

10:                                               ; preds = %.lr.ph.split
  tail call void %8(ptr noundef nonnull %9) #20
  %.pre = load ptr, ptr @reftable_free_ptr, align 8, !tbaa !4
  br label %reftable_free.exit

11:                                               ; preds = %.lr.ph.split
  tail call void @free(ptr noundef nonnull %9) #20
  br label %reftable_free.exit

reftable_free.exit:                               ; preds = %10, %11
  %12 = phi ptr [ %.pre, %10 ], [ %7, %11 ]
  %13 = phi ptr [ %.pre, %10 ], [ null, %11 ]
  %14 = getelementptr inbounds nuw i8, ptr %.012, i64 8
  %15 = load ptr, ptr %14, align 8, !tbaa !18
  %.not8 = icmp eq ptr %15, null
  br i1 %.not8, label %._crit_edge, label %.lr.ph.split, !llvm.loop !20

._crit_edge:                                      ; preds = %reftable_free.exit, %.preheader
  %16 = phi ptr [ %.pre15, %.preheader ], [ %12, %reftable_free.exit ]
  %.not.i9 = icmp eq ptr %16, null
  br i1 %.not.i9, label %._crit_edge.thread, label %17

17:                                               ; preds = %._crit_edge
  tail call void %16(ptr noundef nonnull %0) #20
  br label %reftable_free.exit10

._crit_edge.thread:                               ; preds = %reftable_free.exit.us, %._crit_edge
  tail call void @free(ptr noundef nonnull %0) #20
  br label %reftable_free.exit10

reftable_free.exit10:                             ; preds = %._crit_edge.thread, %17, %1
  ret void
}